V3.10
p0
.VLALR
p0
.VleftB_OPrightU_OPB_OP DATE EQUAL FIELD IN LESSER_GREATER NULL NUMBER REGEX STRING U_OPexpression : expression B_OP expressionexpression : U_OP expressionexpression : '(' expression ')'operation : EQUAL\u000a| LESSER_GREATER\u000a| REGEX\u000a| IN\u000aparen_list : '[' flat_list ']'flat_list : value\u000a| value ',' flat_listexpression : FIELD operation valuevalue : STRING\u000a| NUMBER\u000a| DATE\u000a| NULL\u000a| paren_list\u000a
p0
.(dp0
I0
(dp1
VU_OP
p2
I2
sV(
p3
I3
sVFIELD
p4
I4
ssI1
(dp5
V$end
p6
I0
sVB_OP
p7
I5
ssI2
(dp8
g2
I2
sg3
I3
sg4
I4
ssI3
(dp9
g2
I2
sg3
I3
sg4
I4
ssI4
(dp10
VEQUAL
p11
I9
sVLESSER_GREATER
p12
I10
sVREGEX
p13
I11
sVIN
p14
I12
ssI5
(dp15
g2
I2
sg3
I3
sg4
I4
ssI6
(dp16
g7
I-2
sg6
I-2
sV)
p17
I-2
ssI7
(dp18
g17
I14
sg7
I5
ssI8
(dp19
VSTRING
p20
I16
sVNUMBER
p21
I17
sVDATE
p22
I18
sVNULL
p23
I19
sV[
p24
I21
ssI9
(dp25
g20
I-4
sg21
I-4
sg22
I-4
sg23
I-4
sg24
I-4
ssI10
(dp26
g20
I-5
sg21
I-5
sg22
I-5
sg23
I-5
sg24
I-5
ssI11
(dp27
g20
I-6
sg21
I-6
sg22
I-6
sg23
I-6
sg24
I-6
ssI12
(dp28
g20
I-7
sg21
I-7
sg22
I-7
sg23
I-7
sg24
I-7
ssI13
(dp29
g7
I-1
sg6
I-1
sg17
I-1
ssI14
(dp30
g7
I-3
sg6
I-3
sg17
I-3
ssI15
(dp31
g7
I-11
sg6
I-11
sg17
I-11
ssI16
(dp32
g7
I-12
sg6
I-12
sg17
I-12
sV,
p33
I-12
sV]
p34
I-12
ssI17
(dp35
g7
I-13
sg6
I-13
sg17
I-13
sg33
I-13
sg34
I-13
ssI18
(dp36
g7
I-14
sg6
I-14
sg17
I-14
sg33
I-14
sg34
I-14
ssI19
(dp37
g7
I-15
sg6
I-15
sg17
I-15
sg33
I-15
sg34
I-15
ssI20
(dp38
g7
I-16
sg6
I-16
sg17
I-16
sg33
I-16
sg34
I-16
ssI21
(dp39
g20
I16
sg21
I17
sg22
I18
sg23
I19
sg24
I21
ssI22
(dp40
g34
I24
ssI23
(dp41
g34
I-9
sg33
I25
ssI24
(dp42
g7
I-8
sg6
I-8
sg17
I-8
sg33
I-8
sg34
I-8
ssI25
(dp43
g20
I16
sg21
I17
sg22
I18
sg23
I19
sg24
I21
ssI26
(dp44
g34
I-10
ss.(dp0
I0
(dp1
Vexpression
p2
I1
ssI1
(dp3
sI2
(dp4
Vexpression
p5
I6
ssI3
(dp6
Vexpression
p7
I7
ssI4
(dp8
Voperation
p9
I8
ssI5
(dp10
Vexpression
p11
I13
ssI6
(dp12
sI7
(dp13
sI8
(dp14
Vvalue
p15
I15
sVparen_list
p16
I20
ssI9
(dp17
sI10
(dp18
sI11
(dp19
sI12
(dp20
sI13
(dp21
sI14
(dp22
sI15
(dp23
sI16
(dp24
sI17
(dp25
sI18
(dp26
sI19
(dp27
sI20
(dp28
sI21
(dp29
Vflat_list
p30
I22
sVvalue
p31
I23
sg16
I20
ssI22
(dp32
sI23
(dp33
sI24
(dp34
sI25
(dp35
Vvalue
p36
I23
sVflat_list
p37
I26
sg16
I20
ssI26
(dp38
s.(lp0
(VS' -> expression
p1
VS'
p2
I1
NNNtp3
a(Vexpression -> expression B_OP expression
p4
Vexpression
p5
I3
Vp_expression_b_op
p6
Vparser.py
p7
I23
tp8
a(Vexpression -> U_OP expression
p9
Vexpression
p10
I2
Vp_expression_u_op
p11
Vparser.py
p12
I31
tp13
a(Vexpression -> ( expression )
p14
Vexpression
p15
I3
Vp_expression_paren
p16
Vparser.py
p17
I37
tp18
a(Voperation -> EQUAL
p19
Voperation
p20
I1
Vp_operation
p21
Vparser.py
p22
I42
tp23
a(Voperation -> LESSER_GREATER
p24
g20
I1
g21
Vparser.py
p25
I43
tp26
a(Voperation -> REGEX
p27
g20
I1
g21
Vparser.py
p28
I44
tp29
a(Voperation -> IN
p30
g20
I1
g21
Vparser.py
p31
I45
tp32
a(Vparen_list -> [ flat_list ]
p33
Vparen_list
p34
I3
Vp_paren_list
p35
Vparser.py
p36
I51
tp37
a(Vflat_list -> value
p38
Vflat_list
p39
I1
Vp_flat_list
p40
Vparser.py
p41
I56
tp42
a(Vflat_list -> value , flat_list
p43
g39
I3
g40
Vparser.py
p44
I57
tp45
a(Vexpression -> FIELD operation value
p46
Vexpression
p47
I3
Vp_expression_ID
p48
Vparser.py
p49
I65
tp50
a(Vvalue -> STRING
p51
Vvalue
p52
I1
Vp_value
p53
Vparser.py
p54
I87
tp55
a(Vvalue -> NUMBER
p56
g52
I1
g53
Vparser.py
p57
I88
tp58
a(Vvalue -> DATE
p59
g52
I1
g53
Vparser.py
p60
I89
tp61
a(Vvalue -> NULL
p62
g52
I1
g53
Vparser.py
p63
I90
tp64
a(Vvalue -> paren_list
p65
g52
I1
g53
Vparser.py
p66
I91
tp67
a.
