V3.10
p0
.VLALR
p0
.VleftB_OPrightU_OPNUMBER DATE STRING FIELD U_OP B_OP EQUAL LESSER_GREATER REGEX IN NULLexpression : expression B_OP expressionexpression : U_OP expressionexpression : '(' expression ')' operation : EQUAL\u000a                 | LESSER_GREATER\u000a                 | REGEX\u000a                 | IN\u000a    paren_list : '[' flat_list ']'flat_list : value\u000a                 | value ',' flat_listexpression : FIELD operation value\u000a    value : STRING\u000a            | NUMBER\u000a            | DATE\u000a            | NULL\u000a            | paren_list\u000a            
p0
.(dp0
L0L
(dp1
VU_OP
p2
L2L
sV(
p3
L3L
sVFIELD
p4
L4L
ssL1L
(dp5
V$end
p6
L0L
sVB_OP
p7
L5L
ssL2L
(dp8
g2
L2L
sg3
L3L
sg4
L4L
ssL3L
(dp9
g2
L2L
sg3
L3L
sg4
L4L
ssL4L
(dp10
VEQUAL
p11
L9L
sVLESSER_GREATER
p12
L10L
sVREGEX
p13
L11L
sVIN
p14
L12L
ssL5L
(dp15
g2
L2L
sg3
L3L
sg4
L4L
ssL6L
(dp16
g7
L-2L
sV$end
p17
L-2L
sV)
p18
L-2L
ssL7L
(dp19
g18
L14L
sg7
L5L
ssL8L
(dp20
VSTRING
p21
L16L
sVNUMBER
p22
L17L
sVDATE
p23
L18L
sVNULL
p24
L19L
sV[
p25
L21L
ssL9L
(dp26
g21
L-4L
sg22
L-4L
sg23
L-4L
sg24
L-4L
sg25
L-4L
ssL10L
(dp27
g21
L-5L
sg22
L-5L
sg23
L-5L
sg24
L-5L
sg25
L-5L
ssL11L
(dp28
g21
L-6L
sg22
L-6L
sg23
L-6L
sg24
L-6L
sg25
L-6L
ssL12L
(dp29
g21
L-7L
sg22
L-7L
sg23
L-7L
sg24
L-7L
sg25
L-7L
ssL13L
(dp30
g7
L-1L
sg17
L-1L
sg18
L-1L
ssL14L
(dp31
g7
L-3L
sg17
L-3L
sg18
L-3L
ssL15L
(dp32
g7
L-11L
sg17
L-11L
sg18
L-11L
ssL16L
(dp33
g7
L-12L
sg17
L-12L
sg18
L-12L
sV,
p34
L-12L
sV]
p35
L-12L
ssL17L
(dp36
g7
L-13L
sg17
L-13L
sg18
L-13L
sg34
L-13L
sg35
L-13L
ssL18L
(dp37
g7
L-14L
sg17
L-14L
sg18
L-14L
sg34
L-14L
sg35
L-14L
ssL19L
(dp38
g7
L-15L
sg17
L-15L
sg18
L-15L
sg34
L-15L
sg35
L-15L
ssL20L
(dp39
g7
L-16L
sg17
L-16L
sg18
L-16L
sg34
L-16L
sg35
L-16L
ssL21L
(dp40
g21
L16L
sg22
L17L
sg23
L18L
sg24
L19L
sg25
L21L
ssL22L
(dp41
g35
L24L
ssL23L
(dp42
g35
L-9L
sg34
L25L
ssL24L
(dp43
g7
L-8L
sg17
L-8L
sg18
L-8L
sg34
L-8L
sg35
L-8L
ssL25L
(dp44
g21
L16L
sg22
L17L
sg23
L18L
sg24
L19L
sg25
L21L
ssL26L
(dp45
g35
L-10L
ss.(dp0
L0L
(dp1
Vexpression
p2
L1L
ssL1L
(dp3
sL2L
(dp4
Vexpression
p5
L6L
ssL3L
(dp6
Vexpression
p7
L7L
ssL4L
(dp8
Voperation
p9
L8L
ssL5L
(dp10
Vexpression
p11
L13L
ssL6L
(dp12
sL7L
(dp13
sL8L
(dp14
Vvalue
p15
L15L
sVparen_list
p16
L20L
ssL9L
(dp17
sL10L
(dp18
sL11L
(dp19
sL12L
(dp20
sL13L
(dp21
sL14L
(dp22
sL15L
(dp23
sL16L
(dp24
sL17L
(dp25
sL18L
(dp26
sL19L
(dp27
sL20L
(dp28
sL21L
(dp29
Vflat_list
p30
L22L
sVvalue
p31
L23L
sg16
L20L
ssL22L
(dp32
sL23L
(dp33
sL24L
(dp34
sL25L
(dp35
Vvalue
p36
L23L
sVflat_list
p37
L26L
sg16
L20L
ssL26L
(dp38
s.(lp0
(VS' -> expression
p1
VS'
p2
L1L
NNNtp3
a(Vexpression -> expression B_OP expression
p4
Vexpression
p5
L3L
Vp_expression_b_op
p6
Vparser.py
p7
L23L
tp8
a(Vexpression -> U_OP expression
p9
Vexpression
p10
L2L
Vp_expression_u_op
p11
Vparser.py
p12
L31L
tp13
a(Vexpression -> ( expression )
p14
Vexpression
p15
L3L
Vp_expression_paren
p16
Vparser.py
p17
L37L
tp18
a(Voperation -> EQUAL
p19
Voperation
p20
L1L
Vp_operation
p21
Vparser.py
p22
L42L
tp23
a(Voperation -> LESSER_GREATER
p24
g20
L1L
g21
Vparser.py
p25
L43L
tp26
a(Voperation -> REGEX
p27
g20
L1L
g21
Vparser.py
p28
L44L
tp29
a(Voperation -> IN
p30
g20
L1L
g21
Vparser.py
p31
L45L
tp32
a(Vparen_list -> [ flat_list ]
p33
Vparen_list
p34
L3L
Vp_paren_list
p35
Vparser.py
p36
L51L
tp37
a(Vflat_list -> value
p38
Vflat_list
p39
L1L
Vp_flat_list
p40
Vparser.py
p41
L56L
tp42
a(Vflat_list -> value , flat_list
p43
g39
L3L
g40
Vparser.py
p44
L57L
tp45
a(Vexpression -> FIELD operation value
p46
Vexpression
p47
L3L
Vp_expression_ID
p48
Vparser.py
p49
L65L
tp50
a(Vvalue -> STRING
p51
Vvalue
p52
L1L
Vp_value
p53
Vparser.py
p54
L88L
tp55
a(Vvalue -> NUMBER
p56
g52
L1L
g53
Vparser.py
p57
L89L
tp58
a(Vvalue -> DATE
p59
g52
L1L
g53
Vparser.py
p60
L90L
tp61
a(Vvalue -> NULL
p62
g52
L1L
g53
Vparser.py
p63
L91L
tp64
a(Vvalue -> paren_list
p65
g52
L1L
g53
Vparser.py
p66
L92L
tp67
a.